BL51 BANKED LINKER/LOCATER V6.22                                                        07/22/2017  00:55:47  PAGE 1


BL51 BANKED LINKER/LOCATER V6.22, INVOKED BY:
C:\KEIL\C51\BIN\BL51.EXE dev_io.obj, LED_Key.obj, iic_comm.obj, ESP8266.obj, ssd1306.obj, ..\..\Target\Lib\LP\EZUSB.LIB 
>> TO dev_io RAMSIZE (256)


MEMORY MODEL: SMALL


INPUT MODULES INCLUDED:
  dev_io.obj (DEV_IO)
  LED_Key.obj (LED_KEY)
  iic_comm.obj (IIC_COMM)
  ESP8266.obj (ESP8266)
  ssd1306.obj (SSD1306)
  ..\..\Target\Lib\LP\EZUSB.LIB (EZREGS)
  C:\KEIL\C51\LIB\C51S.LIB (?C_STARTUP)
  C:\KEIL\C51\LIB\C51S.LIB (?C?COPY)
  C:\KEIL\C51\LIB\C51S.LIB (?C?CLDOPTR)
  C:\KEIL\C51\LIB\C51S.LIB (?C?SIDIV)
  C:\KEIL\C51\LIB\C51S.LIB (STRLEN)
  C:\KEIL\C51\LIB\C51S.LIB (?C_INIT)
  C:\KEIL\C51\LIB\C51S.LIB (?C?CLDPTR)
  C:\KEIL\C51\LIB\C51S.LIB (?C?UIDIV)


LINK MAP OF MODULE:  dev_io (DEV_IO)


            TYPE    BASE      LENGTH    RELOCATION   SEGMENT NAME
            -----------------------------------------------------

            * * * * * * *   D A T A   M E M O R Y   * * * * * * *
            REG     0000H     0008H     ABSOLUTE     "REG BANK 0"
            DATA    0008H     0047H     UNIT         ?DT?ESP8266
            DATA    004FH     0016H     UNIT         _DATA_GROUP_
            DATA    0065H     0004H     UNIT         ?DT?_SERIAL0_SENDSTRING1?ESP8266
            DATA    0069H     0003H     UNIT         ?DT?SSD1306
            DATA    006CH     0002H     UNIT         ?DT?DEV_IO
            DATA    006EH     0002H     UNIT         ?DT?SSD1306_DRAW?SSD1306
            IDATA   0070H     0001H     UNIT         ?STACK

            * * * * * * *  X D A T A   M E M O R Y  * * * * * * *
                    0000H     E400H                  *** GAP ***
            XDATA   E400H     0001H     ABSOLUTE     
                    E401H     007FH                  *** GAP ***
            XDATA   E480H     0001H     ABSOLUTE     
                    E481H     0088H                  *** GAP ***
            XDATA   E509H     0001H     ABSOLUTE     
                    E50AH     00F6H                  *** GAP ***
            XDATA   E600H     0001H     ABSOLUTE     
            XDATA   E601H     0001H     ABSOLUTE     
            XDATA   E602H     0001H     ABSOLUTE     
            XDATA   E603H     0001H     ABSOLUTE     
            XDATA   E604H     0001H     ABSOLUTE     
            XDATA   E605H     0001H     ABSOLUTE     
            XDATA   E606H     0001H     ABSOLUTE     
            XDATA   E607H     0001H     ABSOLUTE     
            XDATA   E608H     0001H     ABSOLUTE     
BL51 BANKED LINKER/LOCATER V6.22                                                      07/22/2017  00:55:47  PAGE 2


            XDATA   E609H     0001H     ABSOLUTE     
            XDATA   E60AH     0001H     ABSOLUTE     
            XDATA   E60BH     0001H     ABSOLUTE     
            XDATA   E60CH     0001H     ABSOLUTE     
                    E60DH     0003H                  *** GAP ***
            XDATA   E610H     0001H     ABSOLUTE     
            XDATA   E611H     0001H     ABSOLUTE     
            XDATA   E612H     0001H     ABSOLUTE     
            XDATA   E613H     0001H     ABSOLUTE     
            XDATA   E614H     0001H     ABSOLUTE     
            XDATA   E615H     0001H     ABSOLUTE     
                    E616H     0002H                  *** GAP ***
            XDATA   E618H     0001H     ABSOLUTE     
            XDATA   E619H     0001H     ABSOLUTE     
            XDATA   E61AH     0001H     ABSOLUTE     
            XDATA   E61BH     0001H     ABSOLUTE     
                    E61CH     0004H                  *** GAP ***
            XDATA   E620H     0001H     ABSOLUTE     
            XDATA   E621H     0001H     ABSOLUTE     
            XDATA   E622H     0001H     ABSOLUTE     
            XDATA   E623H     0001H     ABSOLUTE     
            XDATA   E624H     0001H     ABSOLUTE     
            XDATA   E625H     0001H     ABSOLUTE     
            XDATA   E626H     0001H     ABSOLUTE     
            XDATA   E627H     0001H     ABSOLUTE     
            XDATA   E628H     0001H     ABSOLUTE     
            XDATA   E629H     0001H     ABSOLUTE     
            XDATA   E62AH     0001H     ABSOLUTE     
            XDATA   E62BH     0001H     ABSOLUTE     
            XDATA   E62CH     0001H     ABSOLUTE     
            XDATA   E62DH     0001H     ABSOLUTE     
            XDATA   E62EH     0001H     ABSOLUTE     
            XDATA   E62FH     0001H     ABSOLUTE     
            XDATA   E630H     0001H     ABSOLUTE     
            XDATA   E631H     0001H     ABSOLUTE     
            XDATA   E632H     0001H     ABSOLUTE     
            XDATA   E633H     0001H     ABSOLUTE     
            XDATA   E634H     0001H     ABSOLUTE     
            XDATA   E635H     0001H     ABSOLUTE     
            XDATA   E636H     0001H     ABSOLUTE     
            XDATA   E637H     0001H     ABSOLUTE     
                    E638H     0008H                  *** GAP ***
            XDATA   E640H     0001H     ABSOLUTE     
            XDATA   E641H     0001H     ABSOLUTE     
            XDATA   E642H     0001H     ABSOLUTE     
            XDATA   E643H     0001H     ABSOLUTE     
                    E644H     0004H                  *** GAP ***
            XDATA   E648H     0001H     ABSOLUTE     
            XDATA   E649H     0001H     ABSOLUTE     
                    E64AH     0006H                  *** GAP ***
            XDATA   E650H     0001H     ABSOLUTE     
            XDATA   E651H     0001H     ABSOLUTE     
            XDATA   E652H     0001H     ABSOLUTE     
            XDATA   E653H     0001H     ABSOLUTE     
            XDATA   E654H     0001H     ABSOLUTE     
            XDATA   E655H     0001H     ABSOLUTE     
            XDATA   E656H     0001H     ABSOLUTE     
BL51 BANKED LINKER/LOCATER V6.22                                                      07/22/2017  00:55:47  PAGE 3


            XDATA   E657H     0001H     ABSOLUTE     
            XDATA   E658H     0001H     ABSOLUTE     
            XDATA   E659H     0001H     ABSOLUTE     
            XDATA   E65AH     0001H     ABSOLUTE     
            XDATA   E65BH     0001H     ABSOLUTE     
            XDATA   E65CH     0001H     ABSOLUTE     
            XDATA   E65DH     0001H     ABSOLUTE     
            XDATA   E65EH     0001H     ABSOLUTE     
            XDATA   E65FH     0001H     ABSOLUTE     
            XDATA   E660H     0001H     ABSOLUTE     
            XDATA   E661H     0001H     ABSOLUTE     
            XDATA   E662H     0001H     ABSOLUTE     
            XDATA   E663H     0001H     ABSOLUTE     
            XDATA   E664H     0001H     ABSOLUTE     
            XDATA   E665H     0001H     ABSOLUTE     
            XDATA   E666H     0001H     ABSOLUTE     
            XDATA   E667H     0001H     ABSOLUTE     
            XDATA   E668H     0001H     ABSOLUTE     
                    E669H     0007H                  *** GAP ***
            XDATA   E670H     0001H     ABSOLUTE     
            XDATA   E671H     0001H     ABSOLUTE     
            XDATA   E672H     0001H     ABSOLUTE     
                    E673H     0005H                  *** GAP ***
            XDATA   E678H     0001H     ABSOLUTE     
            XDATA   E679H     0001H     ABSOLUTE     
            XDATA   E67AH     0001H     ABSOLUTE     
            XDATA   E67BH     0001H     ABSOLUTE     
            XDATA   E67CH     0001H     ABSOLUTE     
            XDATA   E67DH     0001H     ABSOLUTE     
            XDATA   E67EH     0001H     ABSOLUTE     
            XDATA   E67FH     0001H     ABSOLUTE     
            XDATA   E680H     0001H     ABSOLUTE     
            XDATA   E681H     0001H     ABSOLUTE     
            XDATA   E682H     0001H     ABSOLUTE     
            XDATA   E683H     0001H     ABSOLUTE     
            XDATA   E684H     0001H     ABSOLUTE     
            XDATA   E685H     0001H     ABSOLUTE     
            XDATA   E686H     0001H     ABSOLUTE     
            XDATA   E687H     0001H     ABSOLUTE     
                    E688H     0002H                  *** GAP ***
            XDATA   E68AH     0001H     ABSOLUTE     
            XDATA   E68BH     0001H     ABSOLUTE     
                    E68CH     0001H                  *** GAP ***
            XDATA   E68DH     0001H     ABSOLUTE     
                    E68EH     0001H                  *** GAP ***
            XDATA   E68FH     0001H     ABSOLUTE     
            XDATA   E690H     0001H     ABSOLUTE     
            XDATA   E691H     0001H     ABSOLUTE     
                    E692H     0002H                  *** GAP ***
            XDATA   E694H     0001H     ABSOLUTE     
            XDATA   E695H     0001H     ABSOLUTE     
                    E696H     0002H                  *** GAP ***
            XDATA   E698H     0001H     ABSOLUTE     
            XDATA   E699H     0001H     ABSOLUTE     
                    E69AH     0002H                  *** GAP ***
            XDATA   E69CH     0001H     ABSOLUTE     
            XDATA   E69DH     0001H     ABSOLUTE     
BL51 BANKED LINKER/LOCATER V6.22                                                      07/22/2017  00:55:47  PAGE 4


                    E69EH     0002H                  *** GAP ***
            XDATA   E6A0H     0001H     ABSOLUTE     
            XDATA   E6A1H     0001H     ABSOLUTE     
            XDATA   E6A2H     0001H     ABSOLUTE     
            XDATA   E6A3H     0001H     ABSOLUTE     
            XDATA   E6A4H     0001H     ABSOLUTE     
            XDATA   E6A5H     0001H     ABSOLUTE     
            XDATA   E6A6H     0001H     ABSOLUTE     
            XDATA   E6A7H     0001H     ABSOLUTE     
            XDATA   E6A8H     0001H     ABSOLUTE     
            XDATA   E6A9H     0001H     ABSOLUTE     
            XDATA   E6AAH     0001H     ABSOLUTE     
            XDATA   E6ABH     0001H     ABSOLUTE     
            XDATA   E6ACH     0001H     ABSOLUTE     
            XDATA   E6ADH     0001H     ABSOLUTE     
            XDATA   E6AEH     0001H     ABSOLUTE     
            XDATA   E6AFH     0001H     ABSOLUTE     
            XDATA   E6B0H     0001H     ABSOLUTE     
            XDATA   E6B1H     0001H     ABSOLUTE     
            XDATA   E6B2H     0001H     ABSOLUTE     
            XDATA   E6B3H     0001H     ABSOLUTE     
            XDATA   E6B4H     0001H     ABSOLUTE     
            XDATA   E6B5H     0001H     ABSOLUTE     
                    E6B6H     0002H                  *** GAP ***
            XDATA   E6B8H     0008H     ABSOLUTE     
            XDATA   E6C0H     0001H     ABSOLUTE     
            XDATA   E6C1H     0001H     ABSOLUTE     
            XDATA   E6C2H     0001H     ABSOLUTE     
            XDATA   E6C3H     0001H     ABSOLUTE     
            XDATA   E6C4H     0001H     ABSOLUTE     
            XDATA   E6C5H     0001H     ABSOLUTE     
            XDATA   E6C6H     0001H     ABSOLUTE     
            XDATA   E6C7H     0001H     ABSOLUTE     
            XDATA   E6C8H     0001H     ABSOLUTE     
            XDATA   E6C9H     0001H     ABSOLUTE     
            XDATA   E6CAH     0001H     ABSOLUTE     
            XDATA   E6CBH     0001H     ABSOLUTE     
            XDATA   E6CCH     0001H     ABSOLUTE     
            XDATA   E6CDH     0001H     ABSOLUTE     
            XDATA   E6CEH     0001H     ABSOLUTE     
            XDATA   E6CFH     0001H     ABSOLUTE     
            XDATA   E6D0H     0001H     ABSOLUTE     
            XDATA   E6D1H     0001H     ABSOLUTE     
            XDATA   E6D2H     0001H     ABSOLUTE     
            XDATA   E6D3H     0001H     ABSOLUTE     
            XDATA   E6D4H     0001H     ABSOLUTE     
                    E6D5H     0005H                  *** GAP ***
            XDATA   E6DAH     0001H     ABSOLUTE     
            XDATA   E6DBH     0001H     ABSOLUTE     
            XDATA   E6DCH     0001H     ABSOLUTE     
                    E6DDH     0005H                  *** GAP ***
            XDATA   E6E2H     0001H     ABSOLUTE     
            XDATA   E6E3H     0001H     ABSOLUTE     
            XDATA   E6E4H     0001H     ABSOLUTE     
                    E6E5H     0005H                  *** GAP ***
            XDATA   E6EAH     0001H     ABSOLUTE     
            XDATA   E6EBH     0001H     ABSOLUTE     
BL51 BANKED LINKER/LOCATER V6.22                                                      07/22/2017  00:55:47  PAGE 5


            XDATA   E6ECH     0001H     ABSOLUTE     
                    E6EDH     0003H                  *** GAP ***
            XDATA   E6F0H     0001H     ABSOLUTE     
            XDATA   E6F1H     0001H     ABSOLUTE     
            XDATA   E6F2H     0001H     ABSOLUTE     
            XDATA   E6F3H     0001H     ABSOLUTE     
            XDATA   E6F4H     0001H     ABSOLUTE     
            XDATA   E6F5H     0001H     ABSOLUTE     
                    E6F6H     0002H                  *** GAP ***
            XDATA   E6F8H     0001H     ABSOLUTE     
            XDATA   E6F9H     0001H     ABSOLUTE     
            XDATA   E6FAH     0001H     ABSOLUTE     
            XDATA   E6FBH     0001H     ABSOLUTE     
            XDATA   E6FCH     0001H     ABSOLUTE     
            XDATA   E6FDH     0001H     ABSOLUTE     
            XDATA   E6FEH     0001H     ABSOLUTE     
                    E6FFH     0041H                  *** GAP ***
            XDATA   E740H     0040H     ABSOLUTE     
            XDATA   E780H     0040H     ABSOLUTE     
            XDATA   E7C0H     0040H     ABSOLUTE     
                    E800H     0800H                  *** GAP ***
            XDATA   F000H     0400H     ABSOLUTE     
            XDATA   F400H     0400H     ABSOLUTE     
            XDATA   F800H     0400H     ABSOLUTE     
            XDATA   FC00H     0400H     ABSOLUTE     

            * * * * * * *   C O D E   M E M O R Y   * * * * * * *
            CODE    0000H     0003H     ABSOLUTE     
            CODE    0003H     0020H     UNIT         ?PR?SSD1306_DRAW?SSD1306
            CODE    0023H     0003H     ABSOLUTE     
            CODE    0026H     0620H     UNIT         ?CO?SSD1306
            CODE    0646H     02ABH     UNIT         ?PR?MAIN?DEV_IO
            CODE    08F1H     01FCH     UNIT         ?CO?DEV_IO
            CODE    0AEDH     01C7H     UNIT         ?C?LIB_CODE
            CODE    0CB4H     012DH     UNIT         ?PR?_SSD1306_PRINTF?SSD1306
            CODE    0DE1H     00FDH     UNIT         ?PR?MQTTCONNECT?DEV_IO
            CODE    0EDEH     00CAH     UNIT         ?PR?_MQTTPUBLISH1?DEV_IO
            CODE    0FA8H     008CH     UNIT         ?C_C51STARTUP
            CODE    1034H     007EH     UNIT         ?PR?SSD1306_INITALIZE?SSD1306
            CODE    10B2H     006CH     UNIT         ?PR?ABC1SHOW?ESP8266
            CODE    111EH     004EH     UNIT         ?PR?ABCSHOW?ESP8266
            CODE    116CH     003AH     UNIT         ?PR?LEDKEYTEST?LED_KEY
            CODE    11A6H     0038H     UNIT         ?PR?_SSD1306_PRINTCHAR?SSD1306
            CODE    11DEH     0037H     UNIT         ?PR?_SERIAL0_SENDSTRING?ESP8266
            CODE    1215H     0037H     UNIT         ?PR?_SERIAL0_SENDSTRING1?ESP8266
            CODE    124CH     0033H     UNIT         ?PR?ISR_USART0?ESP8266
            CODE    127FH     0030H     UNIT         ?PR?SSD1306_CLEAR?SSD1306
            CODE    12AFH     002DH     UNIT         ?PR?_MQTTPUBLISH0?DEV_IO
            CODE    12DCH     0029H     UNIT         ?PR?LEDFLOW?LED_KEY
            CODE    1305H     0029H     UNIT         ?PR?LEDFLOWREV?LED_KEY
            CODE    132EH     0028H     UNIT         ?PR?_I2CSEND?IIC_COMM
            CODE    1356H     0025H     UNIT         ?PR?_SERIAL0_SENDINT?ESP8266
            CODE    137BH     001DH     UNIT         ?PR?DELAY1MS?LED_KEY
            CODE    1398H     001CH     UNIT         ?PR?I2CREAD?IIC_COMM
            CODE    13B4H     001BH     UNIT         ?PR?SCANKEY?LED_KEY
            CODE    13CFH     0019H     UNIT         ?PR?SERIAL0_INIT?ESP8266
            CODE    13E8H     0018H     UNIT         ?PR?_WRITECOMMAND?SSD1306
BL51 BANKED LINKER/LOCATER V6.22                                                      07/22/2017  00:55:47  PAGE 6


            CODE    1400H     0018H     UNIT         ?PR?_WRITEDATA?SSD1306
            CODE    1418H     0015H     UNIT         ?PR?LEDFLASH?LED_KEY
            CODE    142DH     0015H     UNIT         ?PR?_STRLEN?STRLEN
            CODE    1442H     0014H     UNIT         ?PR?_DELAY?LED_KEY
            CODE    1456H     000AH     UNIT         ?C_INITSEG
            CODE    1460H     0009H     UNIT         ?PR?I2CRESTART?IIC_COMM
            CODE    1469H     0009H     UNIT         ?PR?I2CSTOP?IIC_COMM
            CODE    1472H     0009H     UNIT         ?PR?I2CACK?IIC_COMM
            CODE    147BH     0009H     UNIT         ?PR?I2CNAK?IIC_COMM
            CODE    1484H     0008H     UNIT         ?PR?_SERIAL0_SENDCHAR?ESP8266
            CODE    148CH     0006H     UNIT         ?PR?I2CSTART?IIC_COMM
            CODE    1492H     0005H     UNIT         ?PR?I2CINIT?IIC_COMM
            CODE    1497H     0004H     UNIT         ?PR?SETUPPORTE?LED_KEY



OVERLAY MAP OF MODULE:   dev_io (DEV_IO)


SEGMENT                                    DATA_GROUP 
  +--> CALLED SEGMENT                    START    LENGTH
--------------------------------------------------------
?PR?ISR_USART0?ESP8266                   004FH    0003H

*** NEW ROOT ***************************************************

?C_C51STARTUP                            -----    -----
  +--> ?PR?MAIN?DEV_IO
  +--> ?C_INITSEG

?PR?MAIN?DEV_IO                          0052H    000AH
  +--> ?CO?DEV_IO
  +--> ?PR?_DELAY?LED_KEY
  +--> ?PR?LEDFLASH?LED_KEY
  +--> ?PR?I2CINIT?IIC_COMM
  +--> ?PR?SSD1306_INITALIZE?SSD1306
  +--> ?PR?SSD1306_CLEAR?SSD1306
  +--> ?PR?_SSD1306_PRINTF?SSD1306
  +--> ?PR?SERIAL0_INIT?ESP8266
  +--> ?PR?_SERIAL0_SENDSTRING?ESP8266
  +--> ?PR?_SERIAL0_SENDCHAR?ESP8266
  +--> ?PR?ABCSHOW?ESP8266
  +--> ?PR?MQTTCONNECT?DEV_IO
  +--> ?PR?ABC1SHOW?ESP8266
  +--> ?PR?_MQTTPUBLISH0?DEV_IO
  +--> ?PR?_MQTTPUBLISH1?DEV_IO
  +--> ?PR?SCANKEY?LED_KEY

?PR?_DELAY?LED_KEY                       -----    -----
  +--> ?PR?DELAY1MS?LED_KEY

?PR?LEDFLASH?LED_KEY                     -----    -----
  +--> ?PR?_DELAY?LED_KEY

?PR?SSD1306_INITALIZE?SSD1306            -----    -----
  +--> ?PR?_WRITECOMMAND?SSD1306

BL51 BANKED LINKER/LOCATER V6.22                                                      07/22/2017  00:55:47  PAGE 7


?PR?_WRITECOMMAND?SSD1306                0063H    0001H
  +--> ?PR?I2CSTART?IIC_COMM
  +--> ?PR?_I2CSEND?IIC_COMM
  +--> ?PR?I2CSTOP?IIC_COMM

?PR?SSD1306_CLEAR?SSD1306                005FH    0002H
  +--> ?PR?_WRITECOMMAND?SSD1306
  +--> ?PR?_WRITEDATA?SSD1306

?PR?_WRITEDATA?SSD1306                   0063H    0001H
  +--> ?PR?I2CSTART?IIC_COMM
  +--> ?PR?_I2CSEND?IIC_COMM
  +--> ?PR?I2CSTOP?IIC_COMM

?PR?_SSD1306_PRINTF?SSD1306              005CH    0007H
  +--> ?PR?_WRITECOMMAND?SSD1306
  +--> ?PR?_STRLEN?STRLEN
  +--> ?CO?SSD1306
  +--> ?PR?_WRITEDATA?SSD1306

?PR?_SERIAL0_SENDSTRING?ESP8266          0061H    0004H
  +--> ?PR?_STRLEN?STRLEN
  +--> ?PR?_SERIAL0_SENDCHAR?ESP8266

?PR?ABCSHOW?ESP8266                      005CH    0003H
  +--> ?PR?SSD1306_CLEAR?SSD1306
  +--> ?PR?_WRITECOMMAND?SSD1306
  +--> ?PR?_SSD1306_PRINTCHAR?SSD1306

?PR?_SSD1306_PRINTCHAR?SSD1306           005FH    0002H
  +--> ?CO?SSD1306
  +--> ?PR?_WRITEDATA?SSD1306

?PR?MQTTCONNECT?DEV_IO                   005CH    0003H
  +--> ?PR?_SERIAL0_SENDCHAR?ESP8266
  +--> ?CO?DEV_IO
  +--> ?PR?_STRLEN?STRLEN
  +--> ?PR?_SERIAL0_SENDINT?ESP8266
  +--> ?PR?_SERIAL0_SENDSTRING?ESP8266

?PR?ABC1SHOW?ESP8266                     005CH    0003H
  +--> ?PR?SSD1306_CLEAR?SSD1306
  +--> ?PR?_WRITECOMMAND?SSD1306
  +--> ?PR?_SSD1306_PRINTCHAR?SSD1306

?PR?_MQTTPUBLISH0?DEV_IO                 005CH    0003H
  +--> ?CO?DEV_IO
  +--> ?PR?_SERIAL0_SENDCHAR?ESP8266

?PR?_MQTTPUBLISH1?DEV_IO                 005CH    0005H
  +--> ?PR?_SERIAL0_SENDCHAR?ESP8266
  +--> ?CO?DEV_IO
  +--> ?PR?_STRLEN?STRLEN
  +--> ?PR?_SERIAL0_SENDSTRING?ESP8266



BL51 BANKED LINKER/LOCATER V6.22                                                      07/22/2017  00:55:47  PAGE 8


SYMBOL TABLE OF MODULE:  dev_io (DEV_IO)

  VALUE           TYPE          NAME
  ----------------------------------

  -------         MODULE        DEV_IO
  C:0000H         SYMBOL        _ICE_DUMMY_
  C:0A76H         PUBLIC        clientID
  C:0DE1H         PUBLIC        MQTTConnect
  D:006CH         PUBLIC        Lig
  C:09B9H         PUBLIC        Subs
  C:0646H         PUBLIC        main
  D:006DH         PUBLIC        CountineCheck
  C:0AE9H         SYMBOL        _?ix1000
  C:0AEBH         SYMBOL        _?ix1001
  B:00B0H.5       PUBLIC        PD5
  B:00B0H.7       PUBLIC        PD7
  C:12AFH         PUBLIC        _MQTTPublish0
  C:0EDEH         PUBLIC        _MQTTPublish1
  D:00B3H         PUBLIC        OEB
  D:00B5H         PUBLIC        OED
  D:00B6H         PUBLIC        OEE
  C:0A19H         PUBLIC        Publish
  C:0A9BH         PUBLIC        username
  C:0AC0H         PUBLIC        password
  -------         PROC          _MQTTPUBLISH0
  D:005CH         SYMBOL        channel
  D:005DH         SYMBOL        value
  -------         DO            
  D:005EH         SYMBOL        len
  -------         ENDDO         
  C:12AFH         LINE#         37
  C:12B3H         LINE#         38
  C:12B3H         LINE#         39
  C:12B6H         LINE#         40
  C:12B8H         LINE#         41
  C:12B8H         LINE#         42
  C:12C2H         LINE#         43
  C:12CBH         LINE#         44
  C:12D3H         LINE#         45
  C:12DBH         LINE#         46
  -------         ENDPROC       _MQTTPUBLISH0
  -------         PROC          MQTTCONNECT
  -------         DO            
  D:005CH         SYMBOL        len
  -------         DO            
  D:005EH         SYMBOL        SendByte
  -------         ENDDO         
  -------         ENDDO         
  C:0DE1H         LINE#         52
  C:0DE1H         LINE#         53
  C:0DE1H         LINE#         54
  C:0DE6H         LINE#         55
  C:0DEBH         LINE#         56
  C:0DF1H         LINE#         57
  C:0E0BH         LINE#         58
  C:0E25H         LINE#         59
BL51 BANKED LINKER/LOCATER V6.22                                                      07/22/2017  00:55:47  PAGE 9


  C:0E3FH         LINE#         60
  C:0E3FH         LINE#         61
  C:0E4CH         LINE#         62
  C:0E5BH         LINE#         63
  C:0E68H         LINE#         64
  C:0E68H         LINE#         65
  C:0E6BH         LINE#         66
  C:0E6BH         LINE#         67
  C:0E70H         LINE#         68
  C:0E7DH         LINE#         70
  C:0E84H         LINE#         71
  C:0E8DH         LINE#         72
  C:0E92H         LINE#         73
  C:0E97H         LINE#         74
  C:0E9EH         LINE#         76
  C:0EAAH         LINE#         77
  C:0EB3H         LINE#         78
  C:0EBFH         LINE#         79
  C:0EC8H         LINE#         80
  C:0ED4H         LINE#         81
  C:0EDDH         LINE#         82
  -------         ENDPROC       MQTTCONNECT
  -------         PROC          _MQTTPUBLISH1
  D:005CH         SYMBOL        channel
  D:005DH         SYMBOL        value
  -------         DO            
  D:005EH         SYMBOL        len
  -------         DO            
  D:0060H         SYMBOL        SendByte
  -------         ENDDO         
  -------         ENDDO         
  C:0EDEH         LINE#         85
  C:0EE2H         LINE#         86
  C:0EE2H         LINE#         87
  C:0EE7H         LINE#         88
  C:0EECH         LINE#         89
  C:0EF2H         LINE#         90
  C:0F05H         LINE#         91
  C:0F18H         LINE#         92
  C:0F18H         LINE#         93
  C:0F25H         LINE#         94
  C:0F34H         LINE#         95
  C:0F41H         LINE#         96
  C:0F41H         LINE#         97
  C:0F44H         LINE#         98
  C:0F44H         LINE#         99
  C:0F49H         LINE#         100
  C:0F56H         LINE#         102
  C:0F5BH         LINE#         103
  C:0F60H         LINE#         104
  C:0F69H         LINE#         105
  C:0F72H         LINE#         106
  C:0F7BH         LINE#         107
  C:0F84H         LINE#         108
  C:0F8DH         LINE#         109
  C:0F95H         LINE#         110
  C:0F9AH         LINE#         111
BL51 BANKED LINKER/LOCATER V6.22                                                      07/22/2017  00:55:47  PAGE 10


  C:0F9FH         LINE#         112
  C:0FA7H         LINE#         113
  -------         ENDPROC       _MQTTPUBLISH1
  -------         PROC          MAIN
  -------         DO            
  D:0052H         SYMBOL        Light1
  D:0054H         SYMBOL        i
  D:0056H         SYMBOL        len
  D:0058H         SYMBOL        header
  D:005AH         SYMBOL        flags
  C:06A5H         SYMBOL        Restart
  -------         ENDDO         
  C:0646H         LINE#         115
  C:0646H         LINE#         116
  C:0646H         LINE#         117
  C:064BH         LINE#         120
  C:064FH         LINE#         121
  C:0664H         LINE#         122
  C:067BH         LINE#         124
  C:067EH         LINE#         125
  C:0681H         LINE#         126
  C:0684H         LINE#         127
  C:068BH         LINE#         128
  C:068DH         LINE#         129
  C:0690H         LINE#         131
  C:0693H         LINE#         133
  C:0696H         LINE#         134
  C:0699H         LINE#         135
  C:06A2H         LINE#         140
  C:06A5H         LINE#         142
  C:06A5H         LINE#         143
  C:06AEH         LINE#         144
  C:06B5H         LINE#         146
  C:06BEH         LINE#         147
  C:06C3H         LINE#         148
  C:06C8H         LINE#         149
  C:06CDH         LINE#         150
  C:06D4H         LINE#         151
  C:06D7H         LINE#         153
  C:06DEH         LINE#         154
  C:06E1H         LINE#         156
  C:06EAH         LINE#         157
  C:06EFH         LINE#         158
  C:06F4H         LINE#         159
  C:06F9H         LINE#         160
  C:0700H         LINE#         161
  C:0703H         LINE#         163
  C:070CH         LINE#         164
  C:0711H         LINE#         165
  C:0716H         LINE#         166
  C:071BH         LINE#         167
  C:0722H         LINE#         168
  C:0725H         LINE#         170
  C:072EH         LINE#         171
  C:0733H         LINE#         172
  C:0738H         LINE#         173
  C:073DH         LINE#         174
BL51 BANKED LINKER/LOCATER V6.22                                                      07/22/2017  00:55:47  PAGE 11


  C:0744H         LINE#         175
  C:0747H         LINE#         177
  C:074AH         LINE#         178
  C:0751H         LINE#         180
  C:075AH         LINE#         182
  C:075DH         LINE#         183
  C:0764H         LINE#         186
  C:0769H         LINE#         187
  C:0769H         LINE#         188
  C:077BH         LINE#         189
  C:078EH         LINE#         190
  C:0795H         LINE#         191
  C:0798H         LINE#         192
  C:079FH         LINE#         194
  C:07A1H         LINE#         195
  C:07A6H         LINE#         196
  C:07ACH         LINE#         197
  C:07B3H         LINE#         199
  C:07B6H         LINE#         200
  C:07B9H         LINE#         201
  C:07C1H         LINE#         202
  C:07CAH         LINE#         203
  C:07CCH         LINE#         205
  C:07CCH         LINE#         206
  C:07D5H         LINE#         207
  C:07D5H         LINE#         209
  C:07D5H         LINE#         210
  C:07D5H         LINE#         214
  C:07DBH         LINE#         215
  C:07DBH         LINE#         217
  C:07E4H         LINE#         218
  C:07E4H         LINE#         219
  C:07E6H         LINE#         220
  C:07EBH         LINE#         221
  C:07F1H         LINE#         222
  C:07F8H         LINE#         224
  C:0801H         LINE#         225
  C:0803H         LINE#         227
  C:0803H         LINE#         228
  C:0805H         LINE#         229
  C:080BH         LINE#         230
  C:0812H         LINE#         231
  C:0819H         LINE#         233
  C:0822H         LINE#         234
  C:0822H         LINE#         235
  C:0825H         LINE#         236
  C:0825H         LINE#         238
  C:0828H         LINE#         239
  C:082EH         LINE#         240
  C:0835H         LINE#         241
  C:083AH         LINE#         242
  C:083AH         LINE#         243
  C:083DH         LINE#         244
  C:083FH         LINE#         245
  C:0841H         LINE#         247
  C:0841H         LINE#         248
  C:0843H         LINE#         249
BL51 BANKED LINKER/LOCATER V6.22                                                      07/22/2017  00:55:47  PAGE 12


  C:0846H         LINE#         250
  C:0846H         LINE#         251
  C:084FH         LINE#         252
  C:084FH         LINE#         254
  C:0857H         LINE#         255
  C:0857H         LINE#         256
  C:085EH         LINE#         257
  C:0860H         LINE#         259
  C:0860H         LINE#         260
  C:0867H         LINE#         261
  C:0867H         LINE#         264
  C:086EH         LINE#         265
  C:0875H         LINE#         266
  C:0878H         LINE#         269
  C:088CH         LINE#         270
  C:088CH         LINE#         271
  C:0892H         LINE#         272
  C:0892H         LINE#         273
  C:0898H         LINE#         274
  C:089DH         LINE#         275
  C:089FH         LINE#         276
  C:08A6H         LINE#         277
  C:08ADH         LINE#         278
  C:08B6H         LINE#         279
  C:08B8H         LINE#         281
  C:08B8H         LINE#         282
  C:08BDH         LINE#         283
  C:08BFH         LINE#         284
  C:08C5H         LINE#         285
  C:08CCH         LINE#         286
  C:08D5H         LINE#         287
  C:08D5H         LINE#         288
  C:08DCH         LINE#         289
  C:08DFH         LINE#         290
  C:08DFH         LINE#         291
  C:08E6H         LINE#         292
  -------         ENDPROC       MAIN
  -------         ENDMOD        DEV_IO

  -------         MODULE        LED_KEY
  C:0000H         SYMBOL        _ICE_DUMMY_
  C:1497H         PUBLIC        SetupPortE
  C:137BH         PUBLIC        Delay1ms
  C:1305H         PUBLIC        LEDFlowRev
  C:116CH         PUBLIC        LEDKeyTest
  C:13B4H         PUBLIC        ScanKey
  C:1418H         PUBLIC        LEDFlash
  D:00B6H         PUBLIC        OEE
  D:00B1H         PUBLIC        IOE
  C:12DCH         PUBLIC        LEDFlow
  C:1442H         PUBLIC        _Delay
  -------         PROC          SETUPPORTE
  C:1497H         LINE#         4
  C:1497H         LINE#         5
  C:1497H         LINE#         6
  C:149AH         LINE#         7
  -------         ENDPROC       SETUPPORTE
BL51 BANKED LINKER/LOCATER V6.22                                                      07/22/2017  00:55:47  PAGE 13


  -------         PROC          DELAY1MS
  -------         DO            
  D:0004H         SYMBOL        j
  D:0006H         SYMBOL        i
  -------         ENDDO         
  C:137BH         LINE#         9
  C:137BH         LINE#         10
  C:137BH         LINE#         13
  C:137EH         LINE#         14
  C:137EH         LINE#         15
  C:138CH         LINE#         16
  C:1397H         LINE#         17
  -------         ENDPROC       DELAY1MS
  -------         PROC          _DELAY
  D:0002H         SYMBOL        ms
  C:1442H         LINE#         19
  C:1446H         LINE#         20
  C:1446H         LINE#         21
  C:1455H         LINE#         22
  -------         ENDPROC       _DELAY
  -------         PROC          SCANKEY
  C:13B4H         LINE#         23
  C:13B4H         LINE#         24
  C:13B4H         LINE#         25
  C:13B9H         LINE#         26
  C:13BCH         LINE#         27
  C:13C1H         LINE#         28
  C:13C4H         LINE#         29
  C:13C9H         LINE#         30
  C:13CCH         LINE#         31
  C:13CEH         LINE#         32
  -------         ENDPROC       SCANKEY
  -------         PROC          LEDFLOW
  C:12DCH         LINE#         33
  C:12DCH         LINE#         34
  C:12DCH         LINE#         35
  C:12DFH         LINE#         36
  C:12E6H         LINE#         37
  C:12E9H         LINE#         38
  C:12F0H         LINE#         39
  C:12F3H         LINE#         40
  C:12FAH         LINE#         41
  C:12FDH         LINE#         42
  C:1304H         LINE#         43
  -------         ENDPROC       LEDFLOW
  -------         PROC          LEDFLOWREV
  C:1305H         LINE#         45
  C:1305H         LINE#         46
  C:1305H         LINE#         47
  C:1308H         LINE#         48
  C:130FH         LINE#         49
  C:1312H         LINE#         50
  C:1319H         LINE#         51
  C:131CH         LINE#         52
  C:1323H         LINE#         53
  C:1326H         LINE#         54
  C:132DH         LINE#         55
BL51 BANKED LINKER/LOCATER V6.22                                                      07/22/2017  00:55:47  PAGE 14


  -------         ENDPROC       LEDFLOWREV
  -------         PROC          LEDFLASH
  C:1418H         LINE#         57
  C:1418H         LINE#         58
  C:1418H         LINE#         59
  C:141BH         LINE#         60
  C:1422H         LINE#         61
  C:1425H         LINE#         62
  C:142CH         LINE#         63
  -------         ENDPROC       LEDFLASH
  -------         PROC          LEDKEYTEST
  -------         DO            
  D:0001H         SYMBOL        flag
  -------         ENDDO         
  C:116CH         LINE#         65
  C:116CH         LINE#         66
  C:116CH         LINE#         67
  C:116EH         LINE#         68
  C:1171H         LINE#         69
  C:1171H         LINE#         70
  C:1171H         LINE#         71
  C:117EH         LINE#         72
  C:1182H         LINE#         73
  C:1186H         LINE#         74
  C:1188H         LINE#         75
  C:1188H         LINE#         77
  C:1194H         LINE#         78
  C:1194H         LINE#         79
  C:1194H         LINE#         80
  C:1197H         LINE#         81
  C:1199H         LINE#         82
  C:1199H         LINE#         83
  C:119CH         LINE#         84
  C:119EH         LINE#         85
  C:119EH         LINE#         86
  C:11A1H         LINE#         87
  C:11A3H         LINE#         88
  C:11A3H         LINE#         89
  -------         ENDPROC       LEDKEYTEST
  -------         ENDMOD        LED_KEY

  -------         MODULE        IIC_COMM
  C:0000H         SYMBOL        _ICE_DUMMY_
  C:1460H         PUBLIC        I2CRestart
  C:1398H         PUBLIC        I2CRead
  B:0090H.0       PUBLIC        PB0
  B:0090H.1       PUBLIC        PB1
  C:132EH         PUBLIC        _I2CSend
  C:1472H         PUBLIC        I2CAck
  C:148CH         PUBLIC        I2CStart
  C:1492H         PUBLIC        I2CInit
  C:147BH         PUBLIC        I2CNak
  C:1469H         PUBLIC        I2CStop
  -------         PROC          I2CINIT
  C:1492H         LINE#         6
  C:1492H         LINE#         7
  C:1492H         LINE#         8
BL51 BANKED LINKER/LOCATER V6.22                                                      07/22/2017  00:55:47  PAGE 15


  C:1494H         LINE#         9
  C:1496H         LINE#         10
  -------         ENDPROC       I2CINIT
  -------         PROC          I2CSTART
  C:148CH         LINE#         12
  C:148CH         LINE#         13
  C:148CH         LINE#         14
  C:148EH         LINE#         15
  C:148FH         LINE#         16
  C:1491H         LINE#         17
  -------         ENDPROC       I2CSTART
  -------         PROC          I2CRESTART
  C:1460H         LINE#         19
  C:1460H         LINE#         20
  C:1460H         LINE#         22
  C:1462H         LINE#         23
  C:1464H         LINE#         24
  C:1466H         LINE#         25
  C:1468H         LINE#         26
  -------         ENDPROC       I2CRESTART
  -------         PROC          I2CSTOP
  C:1469H         LINE#         28
  C:1469H         LINE#         29
  C:1469H         LINE#         30
  C:146BH         LINE#         31
  C:146DH         LINE#         32
  C:146FH         LINE#         33
  C:1471H         LINE#         34
  -------         ENDPROC       I2CSTOP
  -------         PROC          I2CACK
  C:1472H         LINE#         36
  C:1472H         LINE#         37
  C:1472H         LINE#         38
  C:1474H         LINE#         39
  C:1476H         LINE#         40
  C:1478H         LINE#         41
  C:147AH         LINE#         42
  -------         ENDPROC       I2CACK
  -------         PROC          I2CNAK
  C:147BH         LINE#         44
  C:147BH         LINE#         45
  C:147BH         LINE#         46
  C:147DH         LINE#         47
  C:147FH         LINE#         48
  C:1481H         LINE#         49
  C:1483H         LINE#         50
  -------         ENDPROC       I2CNAK
  -------         PROC          _I2CSEND
  D:0007H         SYMBOL        Data
  -------         DO            
  D:0006H         SYMBOL        i
  D:0007H         SYMBOL        ack_bit
  -------         ENDDO         
  C:132EH         LINE#         52
  C:132EH         LINE#         53
  C:132EH         LINE#         55
  C:1330H         LINE#         56
BL51 BANKED LINKER/LOCATER V6.22                                                      07/22/2017  00:55:47  PAGE 16


  C:1334H         LINE#         57
  C:1338H         LINE#         59
  C:133AH         LINE#         60
  C:133CH         LINE#         61
  C:133DH         LINE#         62
  C:133EH         LINE#         63
  C:133FH         LINE#         64
  C:1341H         LINE#         65
  C:1345H         LINE#         66
  C:1349H         LINE#         67
  C:134BH         LINE#         68
  C:134DH         LINE#         69
  C:134EH         LINE#         70
  C:1353H         LINE#         71
  C:1355H         LINE#         73
  C:1355H         LINE#         74
  -------         ENDPROC       _I2CSEND
  -------         PROC          I2CREAD
  -------         DO            
  D:0006H         SYMBOL        i
  D:0007H         SYMBOL        Data
  -------         ENDDO         
  C:1398H         LINE#         75
  C:1398H         LINE#         76
  C:1398H         LINE#         77
  C:139AH         LINE#         78
  C:139BH         LINE#         79
  C:139DH         LINE#         80
  C:13A0H         LINE#         81
  C:13A3H         LINE#         82
  C:13A9H         LINE#         83
  C:13ADH         LINE#         84
  C:13AFH         LINE#         85
  C:13B3H         LINE#         86
  C:13B3H         LINE#         87
  -------         ENDPROC       I2CREAD
  -------         ENDMOD        IIC_COMM

  -------         MODULE        ESP8266
  C:0000H         SYMBOL        _ICE_DUMMY_
  C:1484H         PUBLIC        _Serial0_SendChar
  B:00A8H.7       PUBLIC        EA
  D:0008H         PUBLIC        temp_dataT
  C:111EH         PUBLIC        ABCshow
  C:13CFH         PUBLIC        Serial0_Init
  C:124CH         PUBLIC        ISR_USART0
  B:0098H.0       PUBLIC        RI
  C:10B2H         PUBLIC        ABC1Show
  B:0098H.1       PUBLIC        TI
  D:004EH         PUBLIC        count
  C:1356H         PUBLIC        _Serial0_SendInt
  C:1215H         PUBLIC        _Serial0_SendString1
  D:0087H         PUBLIC        PCON
  B:00A8H.4       PUBLIC        ES0
  B:0088H.4       PUBLIC        TR0
  D:0099H         PUBLIC        SBUF0
  D:0098H         PUBLIC        SCON0
BL51 BANKED LINKER/LOCATER V6.22                                                      07/22/2017  00:55:47  PAGE 17


  C:11DEH         PUBLIC        _Serial0_SendString
  -------         PROC          SERIAL0_INIT
  C:13CFH         LINE#         13
  C:13CFH         LINE#         14
  C:13CFH         LINE#         15
  C:13D5H         LINE#         16
  C:13DBH         LINE#         17
  C:13DEH         LINE#         18
  C:13E1H         LINE#         19
  C:13E3H         LINE#         20
  C:13E5H         LINE#         21
  C:13E7H         LINE#         27
  -------         ENDPROC       SERIAL0_INIT
  -------         PROC          _SERIAL0_SENDSTRING
  D:0061H         SYMBOL        temp
  -------         DO            
  D:0064H         SYMBOL        i
  -------         ENDDO         
  C:11DEH         LINE#         29
  C:11E4H         LINE#         30
  C:11E4H         LINE#         32
  C:11FDH         LINE#         33
  C:11FDH         LINE#         34
  C:1210H         LINE#         35
  C:1214H         LINE#         36
  -------         ENDPROC       _SERIAL0_SENDSTRING
  -------         PROC          _SERIAL0_SENDSTRING1
  D:0065H         SYMBOL        temp
  -------         DO            
  D:0068H         SYMBOL        i
  -------         ENDDO         
  C:1215H         LINE#         38
  C:121BH         LINE#         39
  C:121BH         LINE#         41
  C:1234H         LINE#         42
  C:1234H         LINE#         43
  C:1247H         LINE#         44
  C:124BH         LINE#         45
  -------         ENDPROC       _SERIAL0_SENDSTRING1
  -------         PROC          ABC1SHOW
  -------         DO            
  D:005CH         SYMBOL        h
  D:005DH         SYMBOL        l
  D:005EH         SYMBOL        i
  -------         ENDDO         
  C:10B2H         LINE#         47
  C:10B2H         LINE#         48
  C:10B2H         LINE#         50
  C:10B5H         LINE#         51
  C:10BAH         LINE#         52
  C:10BFH         LINE#         53
  C:10C4H         LINE#         54
  C:10C9H         LINE#         56
  C:10D3H         LINE#         57
  C:10D3H         LINE#         58
  C:10DFH         LINE#         59
  C:10E4H         LINE#         60
BL51 BANKED LINKER/LOCATER V6.22                                                      07/22/2017  00:55:47  PAGE 18


  C:10EBH         LINE#         61
  C:10F5H         LINE#         63
  C:10FDH         LINE#         64
  C:1104H         LINE#         65
  C:110EH         LINE#         67
  C:1116H         LINE#         68
  C:111AH         LINE#         69
  C:111DH         LINE#         70
  -------         ENDPROC       ABC1SHOW
  -------         PROC          ABCSHOW
  -------         DO            
  D:005CH         SYMBOL        h
  D:005DH         SYMBOL        l
  D:005EH         SYMBOL        i
  -------         ENDDO         
  C:111EH         LINE#         72
  C:111EH         LINE#         73
  C:111EH         LINE#         75
  C:1121H         LINE#         76
  C:1126H         LINE#         77
  C:112BH         LINE#         78
  C:1130H         LINE#         79
  C:1135H         LINE#         81
  C:113FH         LINE#         82
  C:113FH         LINE#         83
  C:1153H         LINE#         84
  C:115AH         LINE#         86
  C:1164H         LINE#         87
  C:1168H         LINE#         102
  C:116BH         LINE#         103
  -------         ENDPROC       ABCSHOW
  -------         PROC          _SERIAL0_SENDINT
  D:0002H         SYMBOL        source
  C:1356H         LINE#         104
  C:135AH         LINE#         105
  C:135AH         LINE#         106
  C:1363H         LINE#         107
  C:1366H         LINE#         108
  C:1368H         LINE#         109
  C:1375H         LINE#         110
  C:1378H         LINE#         111
  C:137AH         LINE#         112
  -------         ENDPROC       _SERIAL0_SENDINT
  -------         PROC          _SERIAL0_SENDCHAR
  D:0007H         SYMBOL        source
  C:1484H         LINE#         114
  C:1484H         LINE#         115
  C:1484H         LINE#         116
  C:1486H         LINE#         117
  C:1489H         LINE#         118
  C:148BH         LINE#         119
  -------         ENDPROC       _SERIAL0_SENDCHAR
  -------         PROC          ISR_USART0
  -------         DO            
  D:004FH         SYMBOL        temp_data
  D:0050H         SYMBOL        h
  D:0051H         SYMBOL        l
BL51 BANKED LINKER/LOCATER V6.22                                                      07/22/2017  00:55:47  PAGE 19


  -------         ENDDO         
  C:124CH         LINE#         120
  C:1255H         LINE#         123
  C:1258H         LINE#         124
  C:1258H         LINE#         125
  C:125AH         LINE#         127
  C:1261H         LINE#         128
  C:1261H         LINE#         129
  C:1268H         LINE#         130
  C:126AH         LINE#         131
  C:1273H         LINE#         132
  C:1275H         LINE#         134
  C:1275H         LINE#         135
  C:1278H         LINE#         136
  C:1278H         LINE#         144
  C:1278H         LINE#         145
  -------         ENDPROC       ISR_USART0
  -------         ENDMOD        ESP8266

  -------         MODULE        SSD1306
  C:0000H         SYMBOL        _ICE_DUMMY_
  C:127FH         PUBLIC        ssd1306_clear
  C:0CB4H         PUBLIC        _ssd1306_printf
  C:0026H         PUBLIC        au8Font8x8
  C:0003H         PUBLIC        ssd1306_draw
  C:1400H         PUBLIC        _writeData
  D:0069H         PUBLIC        m_pFramebuffer
  C:1034H         PUBLIC        ssd1306_initalize
  C:11A6H         PUBLIC        _ssd1306_printchar
  C:13E8H         PUBLIC        _writeCommand
  -------         PROC          _WRITECOMMAND
  D:0063H         SYMBOL        cmd
  C:13E8H         LINE#         248
  C:13EAH         LINE#         249
  C:13EAH         LINE#         250
  C:13EDH         LINE#         251
  C:13F2H         LINE#         252
  C:13F7H         LINE#         253
  C:13FCH         LINE#         254
  C:13FFH         LINE#         255
  -------         ENDPROC       _WRITECOMMAND
  -------         PROC          _WRITEDATA
  D:0063H         SYMBOL        cmd
  C:1400H         LINE#         257
  C:1402H         LINE#         258
  C:1402H         LINE#         259
  C:1405H         LINE#         260
  C:140AH         LINE#         261
  C:140FH         LINE#         262
  C:1414H         LINE#         263
  C:1417H         LINE#         264
  -------         ENDPROC       _WRITEDATA
  -------         PROC          SSD1306_INITALIZE
  C:1034H         LINE#         265
  C:1034H         LINE#         266
  C:1034H         LINE#         274
  C:1039H         LINE#         275
BL51 BANKED LINKER/LOCATER V6.22                                                      07/22/2017  00:55:47  PAGE 20


  C:103EH         LINE#         276
  C:1043H         LINE#         277
  C:1048H         LINE#         278
  C:104DH         LINE#         279
  C:1052H         LINE#         280
  C:1057H         LINE#         281
  C:105CH         LINE#         282
  C:1061H         LINE#         283
  C:1066H         LINE#         284
  C:106BH         LINE#         285
  C:1070H         LINE#         286
  C:1075H         LINE#         287
  C:107AH         LINE#         288
  C:107FH         LINE#         289
  C:1084H         LINE#         290
  C:1089H         LINE#         291
  C:108EH         LINE#         292
  C:1093H         LINE#         293
  C:1098H         LINE#         294
  C:109DH         LINE#         295
  C:10A2H         LINE#         296
  C:10A7H         LINE#         297
  C:10ACH         LINE#         298
  C:10B1H         LINE#         301
  -------         ENDPROC       SSD1306_INITALIZE
  -------         PROC          SSD1306_CLEAR
  -------         DO            
  D:005FH         SYMBOL        i
  -------         ENDDO         
  C:127FH         LINE#         303
  C:127FH         LINE#         304
  C:127FH         LINE#         307
  C:1284H         LINE#         308
  C:1289H         LINE#         309
  C:128EH         LINE#         310
  C:1293H         LINE#         312
  C:1298H         LINE#         313
  C:1298H         LINE#         314
  C:129DH         LINE#         315
  C:12AEH         LINE#         316
  -------         ENDPROC       SSD1306_CLEAR
  -------         PROC          _SSD1306_PRINTCHAR
  D:005FH         SYMBOL        dat
  -------         DO            
  D:0060H         SYMBOL        i
  -------         ENDDO         
  C:11A6H         LINE#         318
  C:11A8H         LINE#         319
  C:11A8H         LINE#         321
  C:11ABH         LINE#         322
  C:11ABH         LINE#         323
  C:11D4H         LINE#         324
  C:11DDH         LINE#         325
  -------         ENDPROC       _SSD1306_PRINTCHAR
  -------         PROC          SSD1306_DRAW
  -------         DO            
  D:0006H         SYMBOL        i
BL51 BANKED LINKER/LOCATER V6.22                                                      07/22/2017  00:55:47  PAGE 21


  D:006EH         SYMBOL        j
  -------         ENDDO         
  C:0003H         LINE#         327
  C:0003H         LINE#         328
  C:0003H         LINE#         331
  C:0008H         LINE#         332
  C:000DH         LINE#         333
  C:0012H         LINE#         335
  C:0022H         LINE#         337
  -------         ENDPROC       SSD1306_DRAW
  -------         PROC          _SSD1306_PRINTF
  D:005CH         SYMBOL        dat
  -------         DO            
  D:005FH         SYMBOL        i
  D:0061H         SYMBOL        j
  -------         ENDDO         
  C:0CB4H         LINE#         339
  C:0CBAH         LINE#         340
  C:0CBAH         LINE#         341
  C:0CBFH         LINE#         342
  C:0CC3H         LINE#         344
  C:0CC7H         LINE#         345
  C:0CCCH         LINE#         346
  C:0CD1H         LINE#         347
  C:0CD6H         LINE#         349
  C:0CF6H         LINE#         350
  C:0CF6H         LINE#         351
  C:0D13H         LINE#         352
  C:0D18H         LINE#         353
  C:0D49H         LINE#         355
  C:0D4EH         LINE#         356
  C:0D96H         LINE#         357
  C:0DA1H         LINE#         358
  C:0DD1H         LINE#         359
  C:0DE0H         LINE#         360
  -------         ENDPROC       _SSD1306_PRINTF
  -------         ENDMOD        SSD1306

  -------         MODULE        EZREGS
  C:0000H         SYMBOL        _ICE_DUMMY_
  X:E652H         PUBLIC        EP4FIFOIE
  X:E668H         PUBLIC        INTSETUP
  X:E600H         PUBLIC        CPUCS
  X:E654H         PUBLIC        EP6FIFOIE
  X:E680H         PUBLIC        USBCS
  X:E65FH         PUBLIC        EPIRQ
  X:E656H         PUBLIC        EP8FIFOIE
  X:E6F2H         PUBLIC        XGPIFSGLDATLNOX
  X:E6C0H         PUBLIC        GPIFWFSELECT
  X:E6F0H         PUBLIC        XGPIFSGLDATH
  X:E605H         PUBLIC        BREAKPT
  X:E609H         PUBLIC        FIFOPINPOLAR
  X:E640H         PUBLIC        EP2ISOINPKTS
  X:E678H         PUBLIC        I2CS
  X:E610H         PUBLIC        EP1OUTCFG
  X:E6F9H         PUBLIC        TESTCFG
  X:E641H         PUBLIC        EP4ISOINPKTS
BL51 BANKED LINKER/LOCATER V6.22                                                      07/22/2017  00:55:47  PAGE 22


  X:E68AH         PUBLIC        EP0BCH
  X:E661H         PUBLIC        GPIFIRQ
  X:E642H         PUBLIC        EP6ISOINPKTS
  X:E690H         PUBLIC        EP2BCH
  X:E643H         PUBLIC        EP8ISOINPKTS
  X:E694H         PUBLIC        EP4BCH
  X:E68BH         PUBLIC        EP0BCL
  X:E612H         PUBLIC        EP2CFG
  X:E698H         PUBLIC        EP6BCH
  X:E691H         PUBLIC        EP2BCL
  X:E613H         PUBLIC        EP4CFG
  X:E6A7H         PUBLIC        EP2FIFOFLGS
  X:E69CH         PUBLIC        EP8BCH
  X:E695H         PUBLIC        EP4BCL
  X:E628H         PUBLIC        ECCCFG
  X:E614H         PUBLIC        EP6CFG
  X:E6A8H         PUBLIC        EP4FIFOFLGS
  X:E699H         PUBLIC        EP6BCL
  X:E780H         PUBLIC        EP1OUTBUF
  X:E67BH         PUBLIC        XAUTODAT1
  X:E615H         PUBLIC        EP8CFG
  X:E6A9H         PUBLIC        EP6FIFOFLGS
  X:E69DH         PUBLIC        EP8BCL
  X:E67CH         PUBLIC        XAUTODAT2
  X:E684H         PUBLIC        USBFRAMEH
  X:E6F5H         PUBLIC        GPIFABORT
  X:E6AAH         PUBLIC        EP8FIFOFLGS
  X:E6F8H         PUBLIC        DBUG
  X:E740H         PUBLIC        EP0BUF
  X:E6CBH         PUBLIC        FLOWSTB
  X:E65EH         PUBLIC        EPIE
  X:E685H         PUBLIC        USBFRAMEL
  X:E681H         PUBLIC        SUSPEND
  X:E60CH         PUBLIC        GPIFHOLDAMOUNT
  X:E6D4H         PUBLIC        EP2GPIFTRIG
  X:E6C7H         PUBLIC        FLOWLOGIC
  X:E6DCH         PUBLIC        EP4GPIFTRIG
  X:E604H         PUBLIC        FIFORESET
  X:E6E4H         PUBLIC        EP6GPIFTRIG
  X:E6C2H         PUBLIC        GPIFIDLECTL
  X:E6FAH         PUBLIC        USBTEST
  X:E6B3H         PUBLIC        SUDPTRH
  X:E6ECH         PUBLIC        EP8GPIFTRIG
  X:E6D2H         PUBLIC        EP2GPIFFLGSEL
  X:E611H         PUBLIC        EP1INCFG
  X:E6B4H         PUBLIC        SUDPTRL
  X:E687H         PUBLIC        FNADDR
  X:E6DAH         PUBLIC        EP4GPIFFLGSEL
  X:E6D1H         PUBLIC        GPIFTCB0
  X:E6CDH         PUBLIC        FLOWSTBHPERIOD
  X:E6D0H         PUBLIC        GPIFTCB1
  X:E665H         PUBLIC        CLRERRCNT
  X:E6E2H         PUBLIC        EP6GPIFFLGSEL
  X:E6CFH         PUBLIC        GPIFTCB2
  X:E664H         PUBLIC        ERRCNTLIM
  X:E6CEH         PUBLIC        GPIFTCB3
  X:E6EAH         PUBLIC        EP8GPIFFLGSEL
BL51 BANKED LINKER/LOCATER V6.22                                                      07/22/2017  00:55:47  PAGE 23


  X:E660H         PUBLIC        GPIFIE
  X:E67FH         PUBLIC        UDMACRCQUAL
  X:E400H         PUBLIC        GPIF_WAVE_DATA
  X:E6CCH         PUBLIC        FLOWSTBEDGE
  X:E6ABH         PUBLIC        EP2FIFOBCH
  X:E7C0H         PUBLIC        EP1INBUF
  X:E6C6H         PUBLIC        FLOWSTATE
  X:E6ADH         PUBLIC        EP4FIFOBCH
  X:E6CAH         PUBLIC        FLOWHOLDOFF
  X:E618H         PUBLIC        EP2FIFOCFG
  X:E6AFH         PUBLIC        EP6FIFOBCH
  X:E6ACH         PUBLIC        EP2FIFOBCL
  X:E619H         PUBLIC        EP4FIFOCFG
  X:E6B1H         PUBLIC        EP8FIFOBCH
  X:E6AEH         PUBLIC        EP4FIFOBCL
  X:E649H         PUBLIC        OUTPKTEND
  X:E663H         PUBLIC        USBERRIRQ
  X:E61AH         PUBLIC        EP6FIFOCFG
  X:E6B0H         PUBLIC        EP6FIFOBCL
  X:E620H         PUBLIC        EP2AUTOINLENH
  X:E61BH         PUBLIC        EP8FIFOCFG
  X:E6B2H         PUBLIC        EP8FIFOBCL
  X:E68DH         PUBLIC        EP1OUTBC
  X:E622H         PUBLIC        EP4AUTOINLENH
  X:E666H         PUBLIC        INT2IVEC
  X:E659H         PUBLIC        IBNIRQ
  X:E6FBH         PUBLIC        CT1
  X:E6C4H         PUBLIC        GPIFADRH
  X:E65BH         PUBLIC        NAKIRQ
  X:E624H         PUBLIC        EP6AUTOINLENH
  X:E621H         PUBLIC        EP2AUTOINLENL
  X:E601H         PUBLIC        IFCONFIG
  X:E6FCH         PUBLIC        CT2
  X:E6B5H         PUBLIC        SUDPTRCTL
  X:E667H         PUBLIC        INT4IVEC
  X:E6FDH         PUBLIC        CT3
  X:E67DH         PUBLIC        UDMACRCH
  X:E626H         PUBLIC        EP8AUTOINLENH
  X:E623H         PUBLIC        EP4AUTOINLENL
  X:E6FEH         PUBLIC        CT4
  X:F000H         PUBLIC        EP2FIFOBUF
  X:E6C5H         PUBLIC        GPIFADRL
  X:E625H         PUBLIC        EP6AUTOINLENL
  X:E630H         PUBLIC        EP2FIFOPFH
  X:F400H         PUBLIC        EP4FIFOBUF
  X:E67EH         PUBLIC        UDMACRCL
  X:E627H         PUBLIC        EP8AUTOINLENL
  X:E6D3H         PUBLIC        EP2GPIFPFSTOP
  X:E683H         PUBLIC        TOGCTL
  X:E632H         PUBLIC        EP4FIFOPFH
  X:F800H         PUBLIC        EP6FIFOBUF
  X:E629H         PUBLIC        ECCRESET
  X:E6DBH         PUBLIC        EP4GPIFPFSTOP
  X:E634H         PUBLIC        EP6FIFOPFH
  X:E631H         PUBLIC        EP2FIFOPFL
  X:FC00H         PUBLIC        EP8FIFOBUF
  X:E60BH         PUBLIC        REVCTL
BL51 BANKED LINKER/LOCATER V6.22                                                      07/22/2017  00:55:47  PAGE 24


  X:E6E3H         PUBLIC        EP6GPIFPFSTOP
  X:E636H         PUBLIC        EP8FIFOPFH
  X:E633H         PUBLIC        EP4FIFOPFL
  X:E608H         PUBLIC        UART230
  X:E480H         PUBLIC        RES_WAVEDATA_END
  X:E6EBH         PUBLIC        EP8GPIFPFSTOP
  X:E679H         PUBLIC        I2DAT
  X:E635H         PUBLIC        EP6FIFOPFL
  X:E6A1H         PUBLIC        EP1OUTCS
  X:E637H         PUBLIC        EP8FIFOPFL
  X:E65DH         PUBLIC        USBIRQ
  X:E670H         PUBLIC        PORTACFG
  X:E671H         PUBLIC        PORTCCFG
  X:E651H         PUBLIC        EP2FIFOIRQ
  X:E602H         PUBLIC        PINFLAGSAB
  X:E6A0H         PUBLIC        EP0CS
  X:E6F4H         PUBLIC        GPIFREADYSTAT
  X:E6C3H         PUBLIC        GPIFCTLCFG
  X:E672H         PUBLIC        PORTECFG
  X:E653H         PUBLIC        EP4FIFOIRQ
  X:E6C1H         PUBLIC        GPIFIDLECS
  X:E6A3H         PUBLIC        EP2CS
  X:E509H         PUBLIC        GPCR2
  X:E67AH         PUBLIC        I2CTL
  X:E655H         PUBLIC        EP6FIFOIRQ
  X:E603H         PUBLIC        PINFLAGSCD
  X:E6A4H         PUBLIC        EP4CS
  X:E648H         PUBLIC        INPKTEND
  X:E657H         PUBLIC        EP8FIFOIRQ
  X:E6A5H         PUBLIC        EP6CS
  X:E6A6H         PUBLIC        EP8CS
  X:E68FH         PUBLIC        EP1INBC
  X:E662H         PUBLIC        USBERRIE
  X:E6C8H         PUBLIC        FLOWEQ0CTL
  X:E6C9H         PUBLIC        FLOWEQ1CTL
  X:E682H         PUBLIC        WAKEUPCS
  X:E6F1H         PUBLIC        XGPIFSGLDATLX
  X:E658H         PUBLIC        IBNIE
  X:E686H         PUBLIC        MICROFRAME
  X:E65AH         PUBLIC        NAKIE
  X:E6B8H         PUBLIC        SETUPDAT
  X:E62AH         PUBLIC        ECC1B0
  X:E62DH         PUBLIC        ECC2B0
  X:E62BH         PUBLIC        ECC1B1
  X:E6F3H         PUBLIC        GPIFREADYCFG
  X:E62EH         PUBLIC        ECC2B1
  X:E62CH         PUBLIC        ECC1B2
  X:E62FH         PUBLIC        ECC2B2
  X:E6A2H         PUBLIC        EP1INCS
  X:E606H         PUBLIC        BPADDRH
  X:E65CH         PUBLIC        USBIE
  X:E60AH         PUBLIC        REVID
  X:E607H         PUBLIC        BPADDRL
  X:E650H         PUBLIC        EP2FIFOIE
  -------         ENDMOD        EZREGS

  -------         MODULE        ?C?COPY
BL51 BANKED LINKER/LOCATER V6.22                                                      07/22/2017  00:55:47  PAGE 25


  C:0BBDH         PUBLIC        ?C?COPY
  -------         ENDMOD        ?C?COPY

  -------         MODULE        ?C?CLDOPTR
  C:0BE3H         PUBLIC        ?C?CLDOPTR
  -------         ENDMOD        ?C?CLDOPTR

  -------         MODULE        ?C?SIDIV
  C:0C10H         PUBLIC        ?C?SIDIV
  -------         ENDMOD        ?C?SIDIV

  -------         MODULE        STRLEN
  C:142DH         PUBLIC        _STRLEN
  -------         ENDMOD        STRLEN

  -------         MODULE        ?C?CLDPTR
  C:0C46H         PUBLIC        ?C?CLDPTR
  -------         ENDMOD        ?C?CLDPTR

  -------         MODULE        ?C?UIDIV
  C:0C5FH         PUBLIC        ?C?UIDIV
  -------         ENDMOD        ?C?UIDIV

*** WARNING L16: UNCALLED SEGMENT, IGNORED FOR OVERLAY PROCESS
    SEGMENT: ?PR?LEDKEYTEST?LED_KEY

*** WARNING L16: UNCALLED SEGMENT, IGNORED FOR OVERLAY PROCESS
    SEGMENT: ?PR?I2CRESTART?IIC_COMM

*** WARNING L16: UNCALLED SEGMENT, IGNORED FOR OVERLAY PROCESS
    SEGMENT: ?PR?I2CACK?IIC_COMM

*** WARNING L16: UNCALLED SEGMENT, IGNORED FOR OVERLAY PROCESS
    SEGMENT: ?PR?I2CNAK?IIC_COMM

*** WARNING L16: UNCALLED SEGMENT, IGNORED FOR OVERLAY PROCESS
    SEGMENT: ?PR?I2CREAD?IIC_COMM

*** WARNING L16: UNCALLED SEGMENT, IGNORED FOR OVERLAY PROCESS
    SEGMENT: ?PR?_SERIAL0_SENDSTRING1?ESP8266

*** WARNING L16: UNCALLED SEGMENT, IGNORED FOR OVERLAY PROCESS
    SEGMENT: ?PR?SSD1306_DRAW?SSD1306

Program Size: data=113.0 xdata=4473 code=5275
LINK/LOCATE RUN COMPLETE.  7 WARNING(S),  0 ERROR(S)
